target datalayout = "e-m:e-p270:32:32-p271:32:32-p272:64:64-i64:64-i128:128-f80:128-n8:16:32:64-S128"
target triple = "x86_64-pc-linux-gnu"

%struct.FLAC__BitReader = type { ptr, i32, i32, i32, i32, i32, i32, i32, i32, i32, i32, i32, ptr, ptr }

; Function Attrs: nounwind sspstrong uwtable
define hidden i32 @FLAC__bitreader_read_byte_block_aligned_no_crc(ptr noundef %0, ptr noundef %1, i32 noundef %2) #0 {
  %4 = alloca i32, align 4
  %5 = alloca ptr, align 8
  %6 = alloca ptr, align 8
  %7 = alloca i32, align 4
  %8 = alloca i32, align 4
  %9 = alloca i32, align 4
  %10 = alloca i64, align 8
  store ptr %0, ptr %5, align 8, !tbaa !3
  store ptr %1, ptr %6, align 8, !tbaa !36
  store i32 %2, ptr %7, align 4, !tbaa !32
  call void @llvm.lifetime.start.p0(i64 4, ptr %8) #10
  %11 = load ptr, ptr %5, align 8, !tbaa !3
  %12 = getelementptr inbounds nuw %struct.FLAC__BitReader, ptr %11, i32 0, i32 9
  %13 = load i32, ptr %12, align 8, !tbaa !19
  %14 = icmp ne i32 %13, 0
  br i1 %14, label %15, label %31

15:                                               ; preds = %3
  %16 = load ptr, ptr %5, align 8, !tbaa !3
  %17 = getelementptr inbounds nuw %struct.FLAC__BitReader, ptr %16, i32 0, i32 10
  %18 = load i32, ptr %17, align 4, !tbaa !20
  %19 = icmp ult i32 %18, -1
  br i1 %19, label %20, label %31

20:                                               ; preds = %15
  %21 = load ptr, ptr %5, align 8, !tbaa !3
  %22 = getelementptr inbounds nuw %struct.FLAC__BitReader, ptr %21, i32 0, i32 10
  %23 = load i32, ptr %22, align 4, !tbaa !20
  %24 = load i32, ptr %7, align 4, !tbaa !32
  %25 = mul i32 %24, 8
  %26 = icmp ult i32 %23, %25
  br i1 %26, label %27, label %30

27:                                               ; preds = %20
  %28 = load ptr, ptr %5, align 8, !tbaa !3
  %29 = getelementptr inbounds nuw %struct.FLAC__BitReader, ptr %28, i32 0, i32 10
  store i32 -1, ptr %29, align 4, !tbaa !20
  store i32 0, ptr %4, align 4
  store i32 1, ptr %9, align 4
  br label %158

30:                                               ; preds = %20
  br label %31

31:                                               ; preds = %30, %15, %3
  br label %32

32:                                               ; preds = %47, %31
  %33 = load i32, ptr %7, align 4, !tbaa !32
  %34 = icmp ne i32 %33, 0
  br i1 %34, label %35, label %40

35:                                               ; preds = %32
  %36 = load ptr, ptr %5, align 8, !tbaa !3
  %37 = getelementptr inbounds nuw %struct.FLAC__BitReader, ptr %36, i32 0, i32 5
  %38 = load i32, ptr %37, align 8, !tbaa !15
  %39 = icmp ne i32 %38, 0
  br label %40

40:                                               ; preds = %35, %32
  %41 = phi i1 [ false, %32 ], [ %39, %35 ]
  br i1 %41, label %42, label %54

42:                                               ; preds = %40
  %43 = load ptr, ptr %5, align 8, !tbaa !3
  %44 = call i32 @FLAC__bitreader_read_raw_uint32(ptr noundef %43, ptr noundef %8, i32 noundef 8)
  %45 = icmp ne i32 %44, 0
  br i1 %45, label %47, label %46

46:                                               ; preds = %42
  store i32 0, ptr %4, align 4
  store i32 1, ptr %9, align 4
  br label %158

47:                                               ; preds = %42
  %48 = load i32, ptr %8, align 4, !tbaa !32
  %49 = trunc i32 %48 to i8
  %50 = load ptr, ptr %6, align 8, !tbaa !36
  %51 = getelementptr inbounds nuw i8, ptr %50, i32 1
  store ptr %51, ptr %6, align 8, !tbaa !36
  store i8 %49, ptr %50, align 1, !tbaa !43
  %52 = load i32, ptr %7, align 4, !tbaa !32
  %53 = add i32 %52, -1
  store i32 %53, ptr %7, align 4, !tbaa !32
  br label %32, !llvm.loop !44

54:                                               ; preds = %40
  %55 = load i32, ptr %7, align 4, !tbaa !32
  %56 = icmp eq i32 0, %55
  br i1 %56, label %57, label %58

57:                                               ; preds = %54
  store i32 1, ptr %4, align 4
  store i32 1, ptr %9, align 4
  br label %158

58:                                               ; preds = %54
  br label %59

59:                                               ; preds = %140, %58
  %60 = load i32, ptr %7, align 4, !tbaa !32
  %61 = icmp uge i32 %60, 8
  br i1 %61, label %62, label %141

62:                                               ; preds = %59
  %63 = load ptr, ptr %5, align 8, !tbaa !3
  %64 = getelementptr inbounds nuw %struct.FLAC__BitReader, ptr %63, i32 0, i32 4
  %65 = load i32, ptr %64, align 4, !tbaa !16
  %66 = load ptr, ptr %5, align 8, !tbaa !3
  %67 = getelementptr inbounds nuw %struct.FLAC__BitReader, ptr %66, i32 0, i32 2
  %68 = load i32, ptr %67, align 4, !tbaa !14
  %69 = icmp ult i32 %65, %68
  br i1 %69, label %70, label %134

70:                                               ; preds = %62
  call void @llvm.lifetime.start.p0(i64 8, ptr %10) #10
  %71 = load ptr, ptr %5, align 8, !tbaa !3
  %72 = getelementptr inbounds nuw %struct.FLAC__BitReader, ptr %71, i32 0, i32 0
  %73 = load ptr, ptr %72, align 8, !tbaa !8
  %74 = load ptr, ptr %5, align 8, !tbaa !3
  %75 = getelementptr inbounds nuw %struct.FLAC__BitReader, ptr %74, i32 0, i32 4
  %76 = load i32, ptr %75, align 4, !tbaa !16
  %77 = add i32 %76, 1
  store i32 %77, ptr %75, align 4, !tbaa !16
  %78 = zext i32 %76 to i64
  %79 = getelementptr inbounds nuw i64, ptr %73, i64 %78
  %80 = load i64, ptr %79, align 8, !tbaa !28
  store i64 %80, ptr %10, align 8, !tbaa !28
  %81 = load i64, ptr %10, align 8, !tbaa !28
  %82 = lshr i64 %81, 56
  %83 = trunc i64 %82 to i8
  %84 = load ptr, ptr %6, align 8, !tbaa !36
  %85 = getelementptr inbounds i8, ptr %84, i64 0
  store i8 %83, ptr %85, align 1, !tbaa !43
  %86 = load i64, ptr %10, align 8, !tbaa !28
  %87 = lshr i64 %86, 48
  %88 = trunc i64 %87 to i8
  %89 = load ptr, ptr %6, align 8, !tbaa !36
  %90 = getelementptr inbounds i8, ptr %89, i64 1
  store i8 %88, ptr %90, align 1, !tbaa !43
  %91 = load i64, ptr %10, align 8, !tbaa !28
  %92 = lshr i64 %91, 40
  %93 = trunc i64 %92 to i8
  %94 = load ptr, ptr %6, align 8, !tbaa !36
  %95 = getelementptr inbounds i8, ptr %94, i64 2
  store i8 %93, ptr %95, align 1, !tbaa !43
  %96 = load i64, ptr %10, align 8, !tbaa !28
  %97 = lshr i64 %96, 32
  %98 = trunc i64 %97 to i8
  %99 = load ptr, ptr %6, align 8, !tbaa !36
  %100 = getelementptr inbounds i8, ptr %99, i64 3
  store i8 %98, ptr %100, align 1, !tbaa !43
  %101 = load i64, ptr %10, align 8, !tbaa !28
  %102 = lshr i64 %101, 24
  %103 = trunc i64 %102 to i8
  %104 = load ptr, ptr %6, align 8, !tbaa !36
  %105 = getelementptr inbounds i8, ptr %104, i64 4
  store i8 %103, ptr %105, align 1, !tbaa !43
  %106 = load i64, ptr %10, align 8, !tbaa !28
  %107 = lshr i64 %106, 16
  %108 = trunc i64 %107 to i8
  %109 = load ptr, ptr %6, align 8, !tbaa !36
  %110 = getelementptr inbounds i8, ptr %109, i64 5
  store i8 %108, ptr %110, align 1, !tbaa !43
  %111 = load i64, ptr %10, align 8, !tbaa !28
  %112 = lshr i64 %111, 8
  %113 = trunc i64 %112 to i8
  %114 = load ptr, ptr %6, align 8, !tbaa !36
  %115 = getelementptr inbounds i8, ptr %114, i64 6
  store i8 %113, ptr %115, align 1, !tbaa !43
  %116 = load i64, ptr %10, align 8, !tbaa !28
  %117 = trunc i64 %116 to i8
  %118 = load ptr, ptr %6, align 8, !tbaa !36
  %119 = getelementptr inbounds i8, ptr %118, i64 7
  store i8 %117, ptr %119, align 1, !tbaa !43
  %120 = load ptr, ptr %6, align 8, !tbaa !36
  %121 = getelementptr inbounds i8, ptr %120, i64 8
  store ptr %121, ptr %6, align 8, !tbaa !36
  %122 = load i32, ptr %7, align 4, !tbaa !32
  %123 = sub i32 %122, 8
  store i32 %123, ptr %7, align 4, !tbaa !32
  %124 = load ptr, ptr %5, align 8, !tbaa !3
  %125 = getelementptr inbounds nuw %struct.FLAC__BitReader, ptr %124, i32 0, i32 9
  %126 = load i32, ptr %125, align 8, !tbaa !19
  %127 = icmp ne i32 %126, 0
  br i1 %127, label %128, label %133

128:                                              ; preds = %70
  %129 = load ptr, ptr %5, align 8, !tbaa !3
  %130 = getelementptr inbounds nuw %struct.FLAC__BitReader, ptr %129, i32 0, i32 10
  %131 = load i32, ptr %130, align 4, !tbaa !20
  %132 = sub i32 %131, 64
  store i32 %132, ptr %130, align 4, !tbaa !20
  br label %133

133:                                              ; preds = %128, %70
  call void @llvm.lifetime.end.p0(i64 8, ptr %10) #10
  br label %140

134:                                              ; preds = %62
  %135 = load ptr, ptr %5, align 8, !tbaa !3
  %136 = call i32 @bitreader_read_from_client_(ptr noundef %135)
  %137 = icmp ne i32 %136, 0
  br i1 %137, label %139, label %138

138:                                              ; preds = %134
  store i32 0, ptr %4, align 4
  store i32 1, ptr %9, align 4
  br label %158

139:                                              ; preds = %134
  br label %140

140:                                              ; preds = %139, %133
  br label %59, !llvm.loop !45

141:                                              ; preds = %59
  br label %142

142:                                              ; preds = %150, %141
  %143 = load i32, ptr %7, align 4, !tbaa !32
  %144 = icmp ne i32 %143, 0
  br i1 %144, label %145, label %157

145:                                              ; preds = %142
  %146 = load ptr, ptr %5, align 8, !tbaa !3
  %147 = call i32 @FLAC__bitreader_read_raw_uint32(ptr noundef %146, ptr noundef %8, i32 noundef 8)
  %148 = icmp ne i32 %147, 0
  br i1 %148, label %150, label %149

149:                                              ; preds = %145
  store i32 0, ptr %4, align 4
  store i32 1, ptr %9, align 4
  br label %158

150:                                              ; preds = %145
  %151 = load i32, ptr %8, align 4, !tbaa !32
  %152 = trunc i32 %151 to i8
  %153 = load ptr, ptr %6, align 8, !tbaa !36
  %154 = getelementptr inbounds nuw i8, ptr %153, i32 1
  store ptr %154, ptr %6, align 8, !tbaa !36
  store i8 %152, ptr %153, align 1, !tbaa !43
  %155 = load i32, ptr %7, align 4, !tbaa !32
  %156 = add i32 %155, -1
  store i32 %156, ptr %7, align 4, !tbaa !32
  br label %142, !llvm.loop !46

157:                                              ; preds = %142
  store i32 1, ptr %4, align 4
  store i32 1, ptr %9, align 4
  br label %158

158:                                              ; preds = %157, %149, %138, %57, %46, %27
  call void @llvm.lifetime.end.p0(i64 4, ptr %8) #10
  %159 = load i32, ptr %4, align 4
  ret i32 %159
}