; Function Attrs: nounwind sspstrong uwtable
define hidden range(i32 0, 2) i32 @FLAC__bitreader_read_byte_block_aligned_no_crc(ptr noundef captures(none) %0, ptr noundef writeonly captures(none) %1, i32 noundef %2) local_unnamed_addr #9 {
  %4 = alloca i32, align 4
  call void @llvm.lifetime.start.p0(i64 4, ptr nonnull %4) #21
  %5 = getelementptr inbounds nuw i8, ptr %0, i64 40
  %6 = load i32, ptr %5, align 8, !tbaa !10
  %.not = icmp eq i32 %6, 0
  br i1 %.not, label %13, label %7

7:                                                ; preds = %3
  %8 = getelementptr inbounds nuw i8, ptr %0, i64 44
  %9 = load i32, ptr %8, align 4, !tbaa !11
  %10 = shl i32 %2, 3
  %11 = icmp ult i32 %9, %10
  br i1 %11, label %12, label %13

12:                                               ; preds = %7
  store i32 -1, ptr %8, align 4, !tbaa !11
  br label %.loopexit

13:                                               ; preds = %7, %3
  %cond64 = icmp eq i32 %2, 0
  br i1 %cond64, label %.loopexit, label %.lr.ph

.lr.ph:                                           ; preds = %13
  %14 = getelementptr inbounds nuw i8, ptr %0, i64 24
  br label %15

15:                                               ; preds = %.lr.ph, %23
  %.04166 = phi i32 [ %2, %.lr.ph ], [ %27, %23 ]
  %.04265 = phi ptr [ %1, %.lr.ph ], [ %26, %23 ]
  %16 = load i32, ptr %14, align 8, !tbaa !17
  %.not50 = icmp eq i32 %16, 0
  br i1 %.not50, label %.critedge.preheader, label %21

.critedge.preheader:                              ; preds = %15
  %17 = icmp ugt i32 %.04166, 7
  br i1 %17, label %.lr.ph71, label %.lr.ph77.preheader

.lr.ph71:                                         ; preds = %.critedge.preheader
  %18 = getelementptr inbounds nuw i8, ptr %0, i64 20
  %19 = getelementptr inbounds nuw i8, ptr %0, i64 12
  %20 = getelementptr inbounds nuw i8, ptr %0, i64 44
  br label %28

21:                                               ; preds = %15
  %22 = call i32 @FLAC__bitreader_read_raw_uint32(ptr noundef nonnull %0, ptr noundef nonnull %4, i32 noundef 8)
  %.not55 = icmp eq i32 %22, 0
  br i1 %.not55, label %.loopexit, label %23

23:                                               ; preds = %21
  %24 = load i32, ptr %4, align 4, !tbaa !30
  %25 = trunc i32 %24 to i8
  %26 = getelementptr inbounds nuw i8, ptr %.04265, i64 1
  store i8 %25, ptr %.04265, align 1, !tbaa !36
  %27 = add i32 %.04166, -1
  %cond = icmp eq i32 %27, 0
  br i1 %cond, label %.loopexit, label %15, !llvm.loop !37

.preheader:                                       ; preds = %.critedge
  %.not5174 = icmp eq i32 %.2, 0
  br i1 %.not5174, label %.loopexit, label %.lr.ph77.preheader

.lr.ph77.preheader:                               ; preds = %.critedge.preheader, %.preheader
  %.376.ph = phi i32 [ %.04166, %.critedge.preheader ], [ %.2, %.preheader ]
  %.34575.ph = phi ptr [ %.04265, %.critedge.preheader ], [ %.244, %.preheader ]
  br label %.lr.ph77

28:                                               ; preds = %.lr.ph71, %.critedge
  %.170 = phi i32 [ %.04166, %.lr.ph71 ], [ %.2, %.critedge ]
  %.14369 = phi ptr [ %.04265, %.lr.ph71 ], [ %.244, %.critedge ]
  %29 = load i32, ptr %18, align 4, !tbaa !16
  %30 = load i32, ptr %19, align 4, !tbaa !28
  %31 = icmp ult i32 %29, %30
  br i1 %31, label %32, label %66

32:                                               ; preds = %28
  %33 = load ptr, ptr %0, align 8, !tbaa !3
  %34 = add nuw i32 %29, 1
  store i32 %34, ptr %18, align 4, !tbaa !16
  %35 = zext i32 %29 to i64
  %36 = getelementptr inbounds nuw i64, ptr %33, i64 %35
  %37 = load i64, ptr %36, align 8, !tbaa !21
  %38 = lshr i64 %37, 56
  %39 = trunc nuw i64 %38 to i8
  store i8 %39, ptr %.14369, align 1, !tbaa !36
  %40 = lshr i64 %37, 48
  %41 = trunc i64 %40 to i8
  %42 = getelementptr inbounds nuw i8, ptr %.14369, i64 1
  store i8 %41, ptr %42, align 1, !tbaa !36
  %43 = lshr i64 %37, 40
  %44 = trunc i64 %43 to i8
  %45 = getelementptr inbounds nuw i8, ptr %.14369, i64 2
  store i8 %44, ptr %45, align 1, !tbaa !36
  %46 = lshr i64 %37, 32
  %47 = trunc i64 %46 to i8
  %48 = getelementptr inbounds nuw i8, ptr %.14369, i64 3
  store i8 %47, ptr %48, align 1, !tbaa !36
  %49 = lshr i64 %37, 24
  %50 = trunc i64 %49 to i8
  %51 = getelementptr inbounds nuw i8, ptr %.14369, i64 4
  store i8 %50, ptr %51, align 1, !tbaa !36
  %52 = lshr i64 %37, 16
  %53 = trunc i64 %52 to i8
  %54 = getelementptr inbounds nuw i8, ptr %.14369, i64 5
  store i8 %53, ptr %54, align 1, !tbaa !36
  %55 = lshr i64 %37, 8
  %56 = trunc i64 %55 to i8
  %57 = getelementptr inbounds nuw i8, ptr %.14369, i64 6
  store i8 %56, ptr %57, align 1, !tbaa !36
  %58 = trunc i64 %37 to i8
  %59 = getelementptr inbounds nuw i8, ptr %.14369, i64 7
  store i8 %58, ptr %59, align 1, !tbaa !36
  %60 = getelementptr inbounds nuw i8, ptr %.14369, i64 8
  %61 = add i32 %.170, -8
  %62 = load i32, ptr %5, align 8, !tbaa !10
  %.not54 = icmp eq i32 %62, 0
  br i1 %.not54, label %.critedge, label %63

63:                                               ; preds = %32
  %64 = load i32, ptr %20, align 4, !tbaa !11
  %65 = add i32 %64, -64
  store i32 %65, ptr %20, align 4, !tbaa !11
  br label %.critedge

66:                                               ; preds = %28
  %67 = tail call fastcc i32 @bitreader_read_from_client_(ptr noundef nonnull %0)
  %.not53 = icmp eq i32 %67, 0
  br i1 %.not53, label %.loopexit, label %.critedge

.critedge:                                        ; preds = %32, %63, %66
  %.244 = phi ptr [ %.14369, %66 ], [ %60, %63 ], [ %60, %32 ]
  %.2 = phi i32 [ %.170, %66 ], [ %61, %63 ], [ %61, %32 ]
  %68 = icmp ugt i32 %.2, 7
  br i1 %68, label %28, label %.preheader, !llvm.loop !38

.lr.ph77:                                         ; preds = %.lr.ph77.preheader, %70
  %.376 = phi i32 [ %74, %70 ], [ %.376.ph, %.lr.ph77.preheader ]
  %.34575 = phi ptr [ %73, %70 ], [ %.34575.ph, %.lr.ph77.preheader ]
  %69 = call i32 @FLAC__bitreader_read_raw_uint32(ptr noundef %0, ptr noundef nonnull %4, i32 noundef 8)
  %.not52 = icmp eq i32 %69, 0
  br i1 %.not52, label %.loopexit, label %70

70:                                               ; preds = %.lr.ph77
  %71 = load i32, ptr %4, align 4, !tbaa !30
  %72 = trunc i32 %71 to i8
  %73 = getelementptr inbounds nuw i8, ptr %.34575, i64 1
  store i8 %72, ptr %.34575, align 1, !tbaa !36
  %74 = add nsw i32 %.376, -1
  %.not51 = icmp eq i32 %74, 0
  br i1 %.not51, label %.loopexit, label %.lr.ph77, !llvm.loop !39

.loopexit:                                        ; preds = %21, %23, %66, %.lr.ph77, %70, %13, %.preheader, %12
  %.0 = phi i32 [ 0, %12 ], [ 1, %.preheader ], [ 1, %13 ], [ 0, %.lr.ph77 ], [ 1, %70 ], [ 0, %66 ], [ 0, %21 ], [ 1, %23 ]
  call void @llvm.lifetime.end.p0(i64 4, ptr nonnull %4) #21
  ret i32 %.0
}